target datalayout = "e-m:e-p270:32:32-p271:32:32-p272:64:64-i64:64-i128:128-f80:128-n8:16:32:64-S128"
target triple = "x86_64-pc-linux-gnu"

%struct.IncrementalSortState = type { %struct.ScanState, i8, i64, i8, i64, i32, i64, ptr, ptr, ptr, %struct.IncrementalSortInfo, ptr, ptr, i8, ptr }
%struct.ScanState = type { %struct.PlanState, ptr, ptr, ptr }
%struct.PlanState = type { i32, ptr, ptr, ptr, ptr, ptr, ptr, ptr, ptr, ptr, ptr, ptr, ptr, ptr, ptr, ptr, ptr, ptr, i8, ptr, ptr, ptr, ptr, ptr, i8, i8, i8, i8, i8, i8, i8, i8 }
%struct.IncrementalSortInfo = type { %struct.IncrementalSortGroupInfo, %struct.IncrementalSortGroupInfo }
%struct.IncrementalSortGroupInfo = type { i64, i64, i64, i64, i64, i32 }
%struct.SharedIncrementalSortInfo = type { i32, [0 x %struct.IncrementalSortInfo] }

; Function Attrs: nounwind uwtable
define dso_local void @ExecIncrementalSortRetrieveInstrumentation(ptr noundef %0) #0 {
  %2 = alloca ptr, align 8
  %3 = alloca i64, align 8
  %4 = alloca ptr, align 8
  %5 = alloca i32, align 4
  store ptr %0, ptr %2, align 8
  call void @llvm.lifetime.start.p0(i64 8, ptr %3) #8
  call void @llvm.lifetime.start.p0(i64 8, ptr %4) #8
  %6 = load ptr, ptr %2, align 8
  %7 = getelementptr inbounds nuw %struct.IncrementalSortState, ptr %6, i32 0, i32 14
  %8 = load ptr, ptr %7, align 8
  %9 = icmp eq ptr %8, null
  br i1 %9, label %10, label %11

10:                                               ; preds = %1
  store i32 1, ptr %5, align 4
  br label %30

11:                                               ; preds = %1
  %12 = load ptr, ptr %2, align 8
  %13 = getelementptr inbounds nuw %struct.IncrementalSortState, ptr %12, i32 0, i32 14
  %14 = load ptr, ptr %13, align 8
  %15 = getelementptr inbounds nuw %struct.SharedIncrementalSortInfo, ptr %14, i32 0, i32 0
  %16 = load i32, ptr %15, align 8
  %17 = sext i32 %16 to i64
  %18 = mul i64 %17, 96
  %19 = add i64 8, %18
  store i64 %19, ptr %3, align 8
  %20 = load i64, ptr %3, align 8
  %21 = call ptr @palloc(i64 noundef %20)
  store ptr %21, ptr %4, align 8
  %22 = load ptr, ptr %4, align 8
  %23 = load ptr, ptr %2, align 8
  %24 = getelementptr inbounds nuw %struct.IncrementalSortState, ptr %23, i32 0, i32 14
  %25 = load ptr, ptr %24, align 8
  %26 = load i64, ptr %3, align 8
  call void @llvm.memcpy.p0.p0.i64(ptr align 8 %22, ptr align 8 %25, i64 %26, i1 false)
  %27 = load ptr, ptr %4, align 8
  %28 = load ptr, ptr %2, align 8
  %29 = getelementptr inbounds nuw %struct.IncrementalSortState, ptr %28, i32 0, i32 14
  store ptr %27, ptr %29, align 8
  store i32 0, ptr %5, align 4
  br label %30

30:                                               ; preds = %11, %10
  call void @llvm.lifetime.end.p0(i64 8, ptr %4) #8
  call void @llvm.lifetime.end.p0(i64 8, ptr %3) #8
  %31 = load i32, ptr %5, align 4
  switch i32 %31, label %33 [
    i32 0, label %32
    i32 1, label %32
  ]

32:                                               ; preds = %30, %30
  ret void

33:                                               ; preds = %30
  unreachable
}