; Function Attrs: nounwind uwtable
define dso_local void @ExecIncrementalSortRetrieveInstrumentation(ptr noundef captures(none) %0) local_unnamed_addr #0 {
  %2 = getelementptr inbounds nuw i8, ptr %0, i64 416
  %3 = load ptr, ptr %2, align 8
  %4 = icmp eq ptr %3, null
  br i1 %4, label %12, label %5

5:                                                ; preds = %1
  %6 = load i32, ptr %3, align 8
  %7 = sext i32 %6 to i64
  %8 = mul nsw i64 %7, 96
  %9 = or disjoint i64 %8, 8
  %10 = tail call ptr @palloc(i64 noundef %9) #8
  %11 = load ptr, ptr %2, align 8
  tail call void @llvm.memcpy.p0.p0.i64(ptr noundef nonnull align 8 dereferenceable(1) %10, ptr noundef nonnull align 8 dereferenceable(1) %11, i64 %9, i1 false)
  store ptr %10, ptr %2, align 8
  br label %12

12:                                               ; preds = %1, %5
  ret void
}